target datalayout = "e-m:e-p270:32:32-p271:32:32-p272:64:64-i64:64-i128:128-f80:128-n8:16:32:64-S128"
target triple = "x86_64-pc-linux-gnu"

%struct.aom_codec_iface = type { ptr, i32, i64, ptr, ptr, ptr, %struct.aom_codec_dec_iface, %struct.aom_codec_enc_iface, ptr }
%struct.aom_codec_dec_iface = type { ptr, ptr, ptr, ptr, ptr }
%struct.aom_codec_enc_iface = type { i32, ptr, ptr, ptr, ptr, ptr, ptr }
%struct.aom_codec_ctx = type { ptr, ptr, i32, ptr, i64, %union.anon, ptr }
%union.anon = type { ptr }
%struct.aom_codec_priv = type { ptr, i64, %struct.anon }
%struct.anon = type { %struct.aom_fixed_buf, i32, i32, %struct.aom_codec_cx_pkt }
%struct.aom_fixed_buf = type { ptr, i64 }
%struct.aom_codec_cx_pkt = type { i32, %union.anon.0 }
%union.anon.0 = type { %struct.aom_psnr_pkt }
%struct.aom_psnr_pkt = type { [4 x i32], [4 x i64], [4 x double], [4 x i32], [4 x i64], [4 x double] }

; Function Attrs: nounwind uwtable
define hidden i32 @aom_codec_dec_init_ver(ptr noundef %0, ptr noundef %1, ptr noundef %2, i64 noundef %3, i32 noundef %4) #0 {
  %6 = alloca ptr, align 8
  %7 = alloca ptr, align 8
  %8 = alloca ptr, align 8
  %9 = alloca i64, align 8
  %10 = alloca i32, align 4
  %11 = alloca i32, align 4
  store ptr %0, ptr %6, align 8
  store ptr %1, ptr %7, align 8
  store ptr %2, ptr %8, align 8
  store i64 %3, ptr %9, align 8
  store i32 %4, ptr %10, align 4
  %12 = load i32, ptr %10, align 4
  %13 = icmp ne i32 %12, 22
  br i1 %13, label %14, label %15

14:                                               ; preds = %5
  store i32 3, ptr %11, align 4
  br label %84

15:                                               ; preds = %5
  %16 = load ptr, ptr %6, align 8
  %17 = icmp ne ptr %16, null
  br i1 %17, label %18, label %21

18:                                               ; preds = %15
  %19 = load ptr, ptr %7, align 8
  %20 = icmp ne ptr %19, null
  br i1 %20, label %22, label %21

21:                                               ; preds = %18, %15
  store i32 8, ptr %11, align 4
  br label %83

22:                                               ; preds = %18
  %23 = load ptr, ptr %7, align 8
  %24 = getelementptr inbounds nuw %struct.aom_codec_iface, ptr %23, i32 0, i32 1
  %25 = load i32, ptr %24, align 8
  %26 = icmp ne i32 %25, 7
  br i1 %26, label %27, label %28

27:                                               ; preds = %22
  store i32 3, ptr %11, align 4
  br label %82

28:                                               ; preds = %22
  %29 = load ptr, ptr %7, align 8
  %30 = getelementptr inbounds nuw %struct.aom_codec_iface, ptr %29, i32 0, i32 2
  %31 = load i64, ptr %30, align 8
  %32 = and i64 %31, 1
  %33 = icmp ne i64 %32, 0
  br i1 %33, label %35, label %34

34:                                               ; preds = %28
  store i32 4, ptr %11, align 4
  br label %81

35:                                               ; preds = %28
  %36 = load ptr, ptr %6, align 8
  call void @llvm.memset.p0.i64(ptr align 8 %36, i8 0, i64 56, i1 false)
  %37 = load ptr, ptr %7, align 8
  %38 = load ptr, ptr %6, align 8
  %39 = getelementptr inbounds nuw %struct.aom_codec_ctx, ptr %38, i32 0, i32 1
  store ptr %37, ptr %39, align 8
  %40 = load ptr, ptr %7, align 8
  %41 = getelementptr inbounds nuw %struct.aom_codec_iface, ptr %40, i32 0, i32 0
  %42 = load ptr, ptr %41, align 8
  %43 = load ptr, ptr %6, align 8
  %44 = getelementptr inbounds nuw %struct.aom_codec_ctx, ptr %43, i32 0, i32 0
  store ptr %42, ptr %44, align 8
  %45 = load ptr, ptr %6, align 8
  %46 = getelementptr inbounds nuw %struct.aom_codec_ctx, ptr %45, i32 0, i32 6
  store ptr null, ptr %46, align 8
  %47 = load i64, ptr %9, align 8
  %48 = load ptr, ptr %6, align 8
  %49 = getelementptr inbounds nuw %struct.aom_codec_ctx, ptr %48, i32 0, i32 4
  store i64 %47, ptr %49, align 8
  %50 = load ptr, ptr %8, align 8
  %51 = load ptr, ptr %6, align 8
  %52 = getelementptr inbounds nuw %struct.aom_codec_ctx, ptr %51, i32 0, i32 5
  store ptr %50, ptr %52, align 8
  %53 = load ptr, ptr %6, align 8
  %54 = getelementptr inbounds nuw %struct.aom_codec_ctx, ptr %53, i32 0, i32 1
  %55 = load ptr, ptr %54, align 8
  %56 = getelementptr inbounds nuw %struct.aom_codec_iface, ptr %55, i32 0, i32 3
  %57 = load ptr, ptr %56, align 8
  %58 = load ptr, ptr %6, align 8
  %59 = call i32 %57(ptr noundef %58)
  store i32 %59, ptr %11, align 4
  %60 = load i32, ptr %11, align 4
  %61 = icmp ne i32 %60, 0
  br i1 %61, label %62, label %80

62:                                               ; preds = %35
  %63 = load ptr, ptr %6, align 8
  %64 = getelementptr inbounds nuw %struct.aom_codec_ctx, ptr %63, i32 0, i32 6
  %65 = load ptr, ptr %64, align 8
  %66 = icmp ne ptr %65, null
  br i1 %66, label %67, label %73

67:                                               ; preds = %62
  %68 = load ptr, ptr %6, align 8
  %69 = getelementptr inbounds nuw %struct.aom_codec_ctx, ptr %68, i32 0, i32 6
  %70 = load ptr, ptr %69, align 8
  %71 = getelementptr inbounds nuw %struct.aom_codec_priv, ptr %70, i32 0, i32 0
  %72 = load ptr, ptr %71, align 8
  br label %74

73:                                               ; preds = %62
  br label %74

74:                                               ; preds = %73, %67
  %75 = phi ptr [ %72, %67 ], [ null, %73 ]
  %76 = load ptr, ptr %6, align 8
  %77 = getelementptr inbounds nuw %struct.aom_codec_ctx, ptr %76, i32 0, i32 3
  store ptr %75, ptr %77, align 8
  %78 = load ptr, ptr %6, align 8
  %79 = call i32 @aom_codec_destroy(ptr noundef %78)
  br label %80

80:                                               ; preds = %74, %35
  br label %81

81:                                               ; preds = %80, %34
  br label %82

82:                                               ; preds = %81, %27
  br label %83

83:                                               ; preds = %82, %21
  br label %84

84:                                               ; preds = %83, %14
  %85 = load ptr, ptr %6, align 8
  %86 = icmp ne ptr %85, null
  br i1 %86, label %87, label %91

87:                                               ; preds = %84
  %88 = load i32, ptr %11, align 4
  %89 = load ptr, ptr %6, align 8
  %90 = getelementptr inbounds nuw %struct.aom_codec_ctx, ptr %89, i32 0, i32 2
  store i32 %88, ptr %90, align 8
  br label %93

91:                                               ; preds = %84
  %92 = load i32, ptr %11, align 4
  br label %93

93:                                               ; preds = %91, %87
  %94 = phi i32 [ %88, %87 ], [ %92, %91 ]
  ret i32 %94
}