; Function Attrs: nounwind uwtable
define hidden i32 @aom_codec_dec_init_ver(ptr noundef %0, ptr noundef %1, ptr noundef %2, i64 noundef %3, i32 noundef %4) local_unnamed_addr #0 {
  %.not = icmp eq i32 %4, 22
  br i1 %.not, label %6, label %33

6:                                                ; preds = %5
  %7 = icmp ne ptr %0, null
  %8 = icmp ne ptr %1, null
  %or.cond = and i1 %7, %8
  br i1 %or.cond, label %9, label %33

9:                                                ; preds = %6
  %10 = getelementptr inbounds nuw i8, ptr %1, i64 8
  %11 = load i32, ptr %10, align 8
  %.not31 = icmp eq i32 %11, 7
  br i1 %.not31, label %12, label %.thread

12:                                               ; preds = %9
  %13 = getelementptr inbounds nuw i8, ptr %1, i64 16
  %14 = load i64, ptr %13, align 8
  %15 = and i64 %14, 1
  %.not32 = icmp eq i64 %15, 0
  br i1 %.not32, label %.thread, label %16

16:                                               ; preds = %12
  tail call void @llvm.memset.p0.i64(ptr noundef nonnull align 8 dereferenceable(56) %0, i8 0, i64 56, i1 false)
  %17 = getelementptr inbounds nuw i8, ptr %0, i64 8
  store ptr %1, ptr %17, align 8
  %18 = load ptr, ptr %1, align 8
  store ptr %18, ptr %0, align 8
  %19 = getelementptr inbounds nuw i8, ptr %0, i64 48
  store ptr null, ptr %19, align 8
  %20 = getelementptr inbounds nuw i8, ptr %0, i64 32
  store i64 %3, ptr %20, align 8
  %21 = getelementptr inbounds nuw i8, ptr %0, i64 40
  store ptr %2, ptr %21, align 8
  %22 = getelementptr inbounds nuw i8, ptr %1, i64 24
  %23 = load ptr, ptr %22, align 8
  %24 = tail call i32 %23(ptr noundef nonnull %0) #3
  %.not33 = icmp eq i32 %24, 0
  br i1 %.not33, label %.thread, label %25

25:                                               ; preds = %16
  %26 = load ptr, ptr %19, align 8
  %.not34 = icmp eq ptr %26, null
  br i1 %.not34, label %29, label %27

27:                                               ; preds = %25
  %28 = load ptr, ptr %26, align 8
  br label %29

29:                                               ; preds = %25, %27
  %30 = phi ptr [ %28, %27 ], [ null, %25 ]
  %31 = getelementptr inbounds nuw i8, ptr %0, i64 24
  store ptr %30, ptr %31, align 8
  %32 = tail call i32 @aom_codec_destroy(ptr noundef nonnull %0) #3
  br label %.thread

33:                                               ; preds = %6, %5
  %.0 = phi i32 [ 3, %5 ], [ 8, %6 ]
  %.not35 = icmp eq ptr %0, null
  br i1 %.not35, label %35, label %.thread

.thread:                                          ; preds = %16, %29, %9, %12, %33
  %.038 = phi i32 [ %.0, %33 ], [ 4, %12 ], [ 3, %9 ], [ 0, %16 ], [ %24, %29 ]
  %34 = getelementptr inbounds nuw i8, ptr %0, i64 16
  store i32 %.038, ptr %34, align 8
  br label %35

35:                                               ; preds = %33, %.thread
  %.039 = phi i32 [ %.0, %33 ], [ %.038, %.thread ]
  ret i32 %.039
}